; Function Attrs: nounwind uwtable
define zeroext range(i8 0, 2) i8 @l_Array_qsort_sort___at_Lean_Elab_Deriving_FromToJson_mkFromJsonBodyForInduct_mkAlts___spec__8___lambda__1(ptr noundef readonly captures(none) %0, ptr noundef readonly captures(none) %1) local_unnamed_addr #0 {
  %3 = getelementptr inbounds nuw i8, ptr %0, i64 16
  %4 = load ptr, ptr %3, align 8, !tbaa !4
  %5 = getelementptr inbounds nuw i8, ptr %1, i64 16
  %6 = load ptr, ptr %5, align 8, !tbaa !4
  %7 = ptrtoint ptr %4 to i64
  %8 = and i64 %7, 1
  %9 = icmp ne i64 %8, 0
  %10 = ptrtoint ptr %6 to i64
  %11 = and i64 %10, 1
  %12 = icmp ne i64 %11, 0
  %or.cond = select i1 %9, i1 %12, i1 false
  br i1 %or.cond, label %13, label %.critedge.i, !prof !17

13:                                               ; preds = %2
  %14 = icmp ult ptr %4, %6
  br label %lean_nat_lt.exit

.critedge.i:                                      ; preds = %2
  %15 = tail call zeroext i1 @lean_nat_big_lt(ptr noundef %4, ptr noundef %6) #5
  br label %lean_nat_lt.exit

lean_nat_lt.exit:                                 ; preds = %13, %.critedge.i
  %.0.i = phi i1 [ %14, %13 ], [ %15, %.critedge.i ]
  %16 = zext i1 %.0.i to i8
  ret i8 %16
}